; Function Attrs: mustprogress nounwind uwtable
define dso_local void @_ZN4llvm13LiveRangeEdit26MRI_NoteNewVirtualRegisterENS_8RegisterE(ptr noundef nonnull readonly align 8 captures(none) dereferenceable(208) %0, i32 %1) unnamed_addr #1 align 2 {
  %3 = getelementptr inbounds nuw i8, ptr %0, i64 40
  %4 = load ptr, ptr %3, align 8
  %.not = icmp eq ptr %4, null
  br i1 %.not, label %6, label %5

5:                                                ; preds = %2
  tail call void @_ZN4llvm10VirtRegMap4growEv(ptr noundef nonnull align 8 dereferenceable(184) %4) #10
  br label %6

6:                                                ; preds = %5, %2
  %7 = getelementptr inbounds nuw i8, ptr %0, i64 16
  %8 = load ptr, ptr %7, align 8
  %9 = tail call noundef i64 @_ZNK4llvm15SmallVectorBaseIjE4sizeEv(ptr noundef nonnull align 8 dereferenceable(16) %8) #10
  %10 = add i64 %9, 1
  %11 = tail call noundef i64 @_ZNK4llvm15SmallVectorBaseIjE8capacityEv(ptr noundef nonnull align 8 dereferenceable(16) %8) #10
  %.not.i.i.i = icmp ugt i64 %10, %11
  br i1 %.not.i.i.i, label %12, label %_ZN4llvm23SmallVectorTemplateBaseINS_8RegisterELb1EE9push_backES1_.exit

12:                                               ; preds = %6
  %13 = getelementptr inbounds nuw i8, ptr %8, i64 16
  tail call void @_ZN4llvm15SmallVectorBaseIjE8grow_podEPvmm(ptr noundef nonnull align 8 dereferenceable(16) %8, ptr noundef nonnull %13, i64 noundef %10, i64 noundef 4) #10
  br label %_ZN4llvm23SmallVectorTemplateBaseINS_8RegisterELb1EE9push_backES1_.exit

_ZN4llvm23SmallVectorTemplateBaseINS_8RegisterELb1EE9push_backES1_.exit: ; preds = %6, %12
  %14 = load ptr, ptr %8, align 8
  %15 = tail call noundef i64 @_ZNK4llvm15SmallVectorBaseIjE4sizeEv(ptr noundef nonnull align 8 dereferenceable(16) %8) #10
  %16 = getelementptr inbounds %"class.llvm::Register", ptr %14, i64 %15
  store i32 %1, ptr %16, align 1
  %17 = tail call noundef i64 @_ZNK4llvm15SmallVectorBaseIjE4sizeEv(ptr noundef nonnull align 8 dereferenceable(16) %8) #10
  %18 = add i64 %17, 1
  tail call void @_ZN4llvm15SmallVectorBaseIjE8set_sizeEm(ptr noundef nonnull align 8 dereferenceable(16) %8, i64 noundef %18) #10
  ret void
}